target datalayout = "e-m:e-p270:32:32-p271:32:32-p272:64:64-i64:64-i128:128-f80:128-n8:16:32:64-S128"
target triple = "x86_64-pc-linux-gnu"

%"class.casadi::MX" = type { %"class.casadi::SharedObject" }
%"class.casadi::SharedObject" = type { ptr }

; Function Attrs: mustprogress nounwind uwtable
define linkonce_odr hidden noundef nonnull align 8 dereferenceable(8) ptr @_ZNK6casadi17SparsityInterfaceINS_2MXEE4selfEv(ptr noundef nonnull align 1 dereferenceable(1) %0) #7 comdat align 2 {
  %2 = alloca ptr, align 8
  store ptr %0, ptr %2, align 8
  %3 = load ptr, ptr %2, align 8
  ret ptr %3
}

; Function Attrs: mustprogress uwtable
define void @_ZN6casadi16GetNonzerosParamC2ERKNS_8SparsityERKNS_2MXES6_(ptr noundef nonnull align 8 dereferenceable(64) %0, ptr noundef nonnull align 8 dereferenceable(8) %1, ptr noundef nonnull align 8 dereferenceable(8) %2, ptr noundef nonnull align 8 dereferenceable(8) %3) unnamed_addr #4 align 2 personality ptr @__gxx_personality_v0 {
  %5 = alloca ptr, align 8
  %6 = alloca ptr, align 8
  %7 = alloca ptr, align 8
  %8 = alloca ptr, align 8
  %9 = alloca ptr, align 8
  %10 = alloca i32, align 4
  store ptr %0, ptr %5, align 8
  store ptr %1, ptr %6, align 8
  store ptr %2, ptr %7, align 8
  store ptr %3, ptr %8, align 8
  %11 = load ptr, ptr %5, align 8
  call void @_ZN6casadi6MXNodeC2Ev(ptr noundef nonnull align 8 dereferenceable(64) %11)
  store ptr getelementptr inbounds ({ [108 x ptr] }, ptr @_ZTVN6casadi16GetNonzerosParamE, i32 0, i32 0, i32 2), ptr %11, align 8
  %12 = load ptr, ptr %6, align 8
  invoke void @_ZN6casadi6MXNode12set_sparsityERKNS_8SparsityE(ptr noundef nonnull align 8 dereferenceable(64) %11, ptr noundef nonnull align 8 dereferenceable(8) %12)
          to label %13 unwind label %17

13:                                               ; preds = %4
  %14 = load ptr, ptr %7, align 8
  %15 = load ptr, ptr %8, align 8
  invoke void @_ZN6casadi6MXNode7set_depERKNS_2MXES3_(ptr noundef nonnull align 8 dereferenceable(64) %11, ptr noundef nonnull align 8 dereferenceable(8) %14, ptr noundef nonnull align 8 dereferenceable(8) %15)
          to label %16 unwind label %17

16:                                               ; preds = %13
  ret void

17:                                               ; preds = %13, %4
  %18 = landingpad { ptr, i32 }
          cleanup
  %19 = extractvalue { ptr, i32 } %18, 0
  store ptr %19, ptr %9, align 8
  %20 = extractvalue { ptr, i32 } %18, 1
  store i32 %20, ptr %10, align 4
  call void @_ZN6casadi6MXNodeD2Ev(ptr noundef nonnull align 8 dereferenceable(64) %11) #3
  br label %21

21:                                               ; preds = %17
  %22 = load ptr, ptr %9, align 8
  %23 = load i32, ptr %10, align 4
  %24 = insertvalue { ptr, i32 } poison, ptr %22, 0
  %25 = insertvalue { ptr, i32 } %24, i32 %23, 1
  resume { ptr, i32 } %25
}

; Function Attrs: mustprogress uwtable
define linkonce_odr hidden noundef nonnull align 8 dereferenceable(8) ptr @_ZNK6casadi13GenericMatrixINS_2MXEE8sparsityEv(ptr noundef nonnull align 1 dereferenceable(1) %0) #4 comdat align 2 {
  %2 = alloca ptr, align 8
  store ptr %0, ptr %2, align 8
  %3 = load ptr, ptr %2, align 8
  %4 = call noundef nonnull align 8 dereferenceable(8) ptr @_ZNK6casadi17SparsityInterfaceINS_2MXEE4selfEv(ptr noundef nonnull align 1 dereferenceable(1) %3)
  %5 = call noundef nonnull align 8 dereferenceable(8) ptr @_ZNK6casadi2MX8sparsityEv(ptr noundef nonnull align 8 dereferenceable(8) %4)
  ret ptr %5
}

; Function Attrs: mustprogress uwtable
define linkonce_odr hidden void @_ZN6casadi22GetNonzerosParamVectorC2ERKNS_2MXES3_(ptr noundef nonnull align 8 dereferenceable(64) %0, ptr noundef nonnull align 8 dereferenceable(8) %1, ptr noundef nonnull align 8 dereferenceable(8) %2) unnamed_addr #4 comdat align 2 {
  %4 = alloca ptr, align 8
  %5 = alloca ptr, align 8
  %6 = alloca ptr, align 8
  store ptr %0, ptr %4, align 8
  store ptr %1, ptr %5, align 8
  store ptr %2, ptr %6, align 8
  %7 = load ptr, ptr %4, align 8
  %8 = load ptr, ptr %6, align 8
  %9 = call noundef nonnull align 8 dereferenceable(8) ptr @_ZNK6casadi2MX8sparsityEv(ptr noundef nonnull align 8 dereferenceable(8) %8)
  %10 = load ptr, ptr %5, align 8
  %11 = load ptr, ptr %6, align 8
  call void @_ZN6casadi16GetNonzerosParamC2ERKNS_8SparsityERKNS_2MXES6_(ptr noundef nonnull align 8 dereferenceable(64) %7, ptr noundef nonnull align 8 dereferenceable(8) %9, ptr noundef nonnull align 8 dereferenceable(8) %10, ptr noundef nonnull align 8 dereferenceable(8) %11)
  store ptr getelementptr inbounds ({ [108 x ptr] }, ptr @_ZTVN6casadi22GetNonzerosParamVectorE, i32 0, i32 0, i32 2), ptr %7, align 8
  ret void
}

; Function Attrs: mustprogress uwtable
define linkonce_odr hidden void @_ZN6casadi13GenericMatrixINS_2MXEE5zerosERKNS_8SparsityE(ptr dead_on_unwind noalias writable sret(%"class.casadi::MX") align 8 %0, ptr noundef nonnull align 8 dereferenceable(8) %1) #4 comdat align 2 {
  %3 = alloca ptr, align 8
  %4 = alloca ptr, align 8
  store ptr %0, ptr %3, align 8
  store ptr %1, ptr %4, align 8
  %5 = load ptr, ptr %4, align 8
  call void @_ZN6casadi2MXC1ERKNS_8SparsityEdb(ptr noundef nonnull align 8 dereferenceable(8) %0, ptr noundef nonnull align 8 dereferenceable(8) %5, double noundef 0.000000e+00, i1 noundef zeroext false)
  ret void
}

; Function Attrs: mustprogress uwtable
define linkonce_odr hidden noundef i64 @_ZNK6casadi13GenericMatrixINS_2MXEE3nnzEv(ptr noundef nonnull align 1 dereferenceable(1) %0) #4 comdat align 2 {
  %2 = alloca ptr, align 8
  store ptr %0, ptr %2, align 8
  %3 = load ptr, ptr %2, align 8
  %4 = call noundef nonnull align 8 dereferenceable(8) ptr @_ZNK6casadi13GenericMatrixINS_2MXEE8sparsityEv(ptr noundef nonnull align 1 dereferenceable(1) %3)
  %5 = call noundef i64 @_ZNK6casadi8Sparsity3nnzEv(ptr noundef nonnull align 8 dereferenceable(8) %4)
  ret i64 %5
}

; Function Attrs: mustprogress uwtable
define void @_ZN6casadi16GetNonzerosParam6createERKNS_2MXES3_(ptr dead_on_unwind noalias writable sret(%"class.casadi::MX") align 8 %0, ptr noundef nonnull align 8 dereferenceable(8) %1, ptr noundef nonnull align 8 dereferenceable(8) %2) #4 align 2 personality ptr @__gxx_personality_v0 {
  %4 = alloca ptr, align 8
  %5 = alloca ptr, align 8
  %6 = alloca ptr, align 8
  %7 = alloca ptr, align 8
  %8 = alloca i32, align 4
  store ptr %0, ptr %4, align 8
  store ptr %1, ptr %5, align 8
  store ptr %2, ptr %6, align 8
  %9 = load ptr, ptr %6, align 8
  %10 = call noundef i64 @_ZNK6casadi13GenericMatrixINS_2MXEE3nnzEv(ptr noundef nonnull align 1 dereferenceable(1) %9)
  %11 = icmp eq i64 %10, 0
  br i1 %11, label %12, label %15

12:                                               ; preds = %3
  %13 = load ptr, ptr %6, align 8
  %14 = call noundef nonnull align 8 dereferenceable(8) ptr @_ZNK6casadi2MX8sparsityEv(ptr noundef nonnull align 8 dereferenceable(8) %13)
  call void @_ZN6casadi13GenericMatrixINS_2MXEE5zerosERKNS_8SparsityE(ptr dead_on_unwind writable sret(%"class.casadi::MX") align 8 %0, ptr noundef nonnull align 8 dereferenceable(8) %14)
  br label %24

15:                                               ; preds = %3
  %16 = call noalias noundef nonnull ptr @_Znwm(i64 noundef 64) #14
  %17 = load ptr, ptr %5, align 8
  %18 = load ptr, ptr %6, align 8
  invoke void @_ZN6casadi22GetNonzerosParamVectorC2ERKNS_2MXES3_(ptr noundef nonnull align 8 dereferenceable(64) %16, ptr noundef nonnull align 8 dereferenceable(8) %17, ptr noundef nonnull align 8 dereferenceable(8) %18)
          to label %19 unwind label %20

19:                                               ; preds = %15
  call void @_ZN6casadi2MX6createEPNS_6MXNodeE(ptr dead_on_unwind writable sret(%"class.casadi::MX") align 8 %0, ptr noundef %16)
  br label %24

20:                                               ; preds = %15
  %21 = landingpad { ptr, i32 }
          cleanup
  %22 = extractvalue { ptr, i32 } %21, 0
  store ptr %22, ptr %7, align 8
  %23 = extractvalue { ptr, i32 } %21, 1
  store i32 %23, ptr %8, align 4
  call void @_ZdlPv(ptr noundef %16) #15
  br label %25

24:                                               ; preds = %19, %12
  ret void

25:                                               ; preds = %20
  %26 = load ptr, ptr %7, align 8
  %27 = load i32, ptr %8, align 4
  %28 = insertvalue { ptr, i32 } poison, ptr %26, 0
  %29 = insertvalue { ptr, i32 } %28, i32 %27, 1
  resume { ptr, i32 } %29
}