; Function Attrs: mustprogress uwtable
define void @_ZN6casadi16GetNonzerosParam6createERKNS_2MXES3_(ptr dead_on_unwind noalias writable sret(%"class.casadi::MX") align 8 %0, ptr noundef nonnull align 8 dereferenceable(8) %1, ptr noundef nonnull align 8 dereferenceable(8) %2) local_unnamed_addr #3 align 2 personality ptr @__gxx_personality_v0 {
  %4 = tail call noundef nonnull align 8 dereferenceable(8) ptr @_ZNK6casadi2MX8sparsityEv(ptr noundef nonnull align 8 dereferenceable(8) %2)
  %5 = tail call noundef i64 @_ZNK6casadi8Sparsity3nnzEv(ptr noundef nonnull align 8 dereferenceable(8) %4)
  %6 = icmp eq i64 %5, 0
  br i1 %6, label %7, label %9

7:                                                ; preds = %3
  %8 = tail call noundef nonnull align 8 dereferenceable(8) ptr @_ZNK6casadi2MX8sparsityEv(ptr noundef nonnull align 8 dereferenceable(8) %2)
  tail call void @_ZN6casadi2MXC1ERKNS_8SparsityEdb(ptr noundef nonnull align 8 dereferenceable(8) %0, ptr noundef nonnull align 8 dereferenceable(8) %8, double noundef 0.000000e+00, i1 noundef zeroext false)
  br label %18

9:                                                ; preds = %3
  %10 = tail call noalias noundef nonnull dereferenceable(64) ptr @_Znwm(i64 noundef 64) #17
  %11 = invoke noundef nonnull align 8 dereferenceable(8) ptr @_ZNK6casadi2MX8sparsityEv(ptr noundef nonnull align 8 dereferenceable(8) %2)
          to label %.noexc unwind label %16

.noexc:                                           ; preds = %9
  invoke void @_ZN6casadi6MXNodeC2Ev(ptr noundef nonnull align 8 dereferenceable(64) %10)
          to label %.noexc5 unwind label %16

.noexc5:                                          ; preds = %.noexc
  store ptr getelementptr inbounds ({ [108 x ptr] }, ptr @_ZTVN6casadi16GetNonzerosParamE, i64 0, i32 0, i64 2), ptr %10, align 8
  invoke void @_ZN6casadi6MXNode12set_sparsityERKNS_8SparsityE(ptr noundef nonnull align 8 dereferenceable(64) %10, ptr noundef nonnull align 8 dereferenceable(8) %11)
          to label %12 unwind label %13

12:                                               ; preds = %.noexc5
  invoke void @_ZN6casadi6MXNode7set_depERKNS_2MXES3_(ptr noundef nonnull align 8 dereferenceable(64) %10, ptr noundef nonnull align 8 dereferenceable(8) %1, ptr noundef nonnull align 8 dereferenceable(8) %2)
          to label %15 unwind label %13

13:                                               ; preds = %12, %.noexc5
  %14 = landingpad { ptr, i32 }
          cleanup
  tail call void @_ZN6casadi6MXNodeD2Ev(ptr noundef nonnull align 8 dereferenceable(64) %10) #18
  br label %.body

15:                                               ; preds = %12
  store ptr getelementptr inbounds ({ [108 x ptr] }, ptr @_ZTVN6casadi22GetNonzerosParamVectorE, i64 0, i32 0, i64 2), ptr %10, align 8
  tail call void @_ZN6casadi2MX6createEPNS_6MXNodeE(ptr dead_on_unwind writable sret(%"class.casadi::MX") align 8 %0, ptr noundef nonnull %10)
  br label %18

16:                                               ; preds = %.noexc, %9
  %17 = landingpad { ptr, i32 }
          cleanup
  br label %.body

.body:                                            ; preds = %13, %16
  %eh.lpad-body = phi { ptr, i32 } [ %17, %16 ], [ %14, %13 ]
  tail call void @_ZdlPv(ptr noundef nonnull %10) #19
  resume { ptr, i32 } %eh.lpad-body

18:                                               ; preds = %15, %7
  ret void
}